(dp1
Vhttp://docs.python.org/tutorial/errors.html
p2
S'{\'content-length\': \'43817\', \'accept-ranges\': \'bytes\', \'server\': \'Apache/2.2.9 (Debian) DAV/2 SVN/1.5.1 mod_ssl/2.2.9 OpenSSL/0.9.8g mod_wsgi/2.3 Python/2.5.2\', \'last-modified\': \'Wed, 06 May 2009 05:41:27 GMT\', \'etag\': \'"14b832a-ab29-46937d8b98fc0"\', \'date\': \'Wed, 06 May 2009 14:11:58 GMT\', \'content-type\': \'text/html\'}'
p3
sVhttp://docs.python.org/tutorial/stdlib2.html
p4
S'{\'content-length\': \'50898\', \'accept-ranges\': \'bytes\', \'server\': \'Apache/2.2.9 (Debian) DAV/2 SVN/1.5.1 mod_ssl/2.2.9 OpenSSL/0.9.8g mod_wsgi/2.3 Python/2.5.2\', \'last-modified\': \'Wed, 06 May 2009 05:41:27 GMT\', \'etag\': \'"14b839e-c6d2-46937d8b98fc0"\', \'date\': \'Wed, 06 May 2009 14:12:02 GMT\', \'content-type\': \'text/html\'}'
p5
sVhttp://docs.python.org/tutorial/inputoutput.html
p6
S'{\'content-length\': \'46439\', \'accept-ranges\': \'bytes\', \'server\': \'Apache/2.2.9 (Debian) DAV/2 SVN/1.5.1 mod_ssl/2.2.9 OpenSSL/0.9.8g mod_wsgi/2.3 Python/2.5.2\', \'last-modified\': \'Wed, 06 May 2009 05:41:27 GMT\', \'etag\': \'"14b8371-b567-46937d8b98fc0"\', \'date\': \'Wed, 06 May 2009 14:12:01 GMT\', \'content-type\': \'text/html\'}'
p7
sVhttp://docs.python.org/tutorial/stdlib.html
p8
S'{\'content-length\': \'38574\', \'accept-ranges\': \'bytes\', \'server\': \'Apache/2.2.9 (Debian) DAV/2 SVN/1.5.1 mod_ssl/2.2.9 OpenSSL/0.9.8g mod_wsgi/2.3 Python/2.5.2\', \'last-modified\': \'Wed, 06 May 2009 05:41:27 GMT\', \'etag\': \'"14b840e-96ae-46937d8b98fc0"\', \'date\': \'Wed, 06 May 2009 14:11:59 GMT\', \'content-type\': \'text/html\'}'
p9
sVhttp://docs.python.org/tutorial/interpreter.html
p10
S'{\'content-length\': \'25398\', \'accept-ranges\': \'bytes\', \'server\': \'Apache/2.2.9 (Debian) DAV/2 SVN/1.5.1 mod_ssl/2.2.9 OpenSSL/0.9.8g mod_wsgi/2.3 Python/2.5.2\', \'last-modified\': \'Wed, 06 May 2009 05:41:27 GMT\', \'etag\': \'"14b8397-6336-46937d8b98fc0"\', \'date\': \'Wed, 06 May 2009 14:11:58 GMT\', \'content-type\': \'text/html\'}'
p11
sVhttp://docs.python.org/tutorial/modules.html
p12
S'{\'content-length\': \'54716\', \'accept-ranges\': \'bytes\', \'server\': \'Apache/2.2.9 (Debian) DAV/2 SVN/1.5.1 mod_ssl/2.2.9 OpenSSL/0.9.8g mod_wsgi/2.3 Python/2.5.2\', \'last-modified\': \'Wed, 06 May 2009 05:41:27 GMT\', \'etag\': \'"14b8376-d5bc-46937d8b98fc0"\', \'date\': \'Wed, 06 May 2009 14:11:58 GMT\', \'content-type\': \'text/html\'}'
p13
sVhttp://docs.python.org/_static/default.css
p14
S'{\'content-length\': \'3306\', \'accept-ranges\': \'bytes\', \'server\': \'Apache/2.2.9 (Debian) DAV/2 SVN/1.5.1 mod_ssl/2.2.9 OpenSSL/0.9.8g mod_wsgi/2.3 Python/2.5.2\', \'last-modified\': \'Wed, 06 May 2009 05:41:22 GMT\', \'etag\': \'"14b8060-cea-46937d86d4480"\', \'date\': \'Wed, 06 May 2009 14:11:58 GMT\', \'content-type\': \'text/css\'}'
p15
sVhttp://docs.python.org/tutorial/introduction.html
p16
S'{\'content-length\': \'59572\', \'accept-ranges\': \'bytes\', \'server\': \'Apache/2.2.9 (Debian) DAV/2 SVN/1.5.1 mod_ssl/2.2.9 OpenSSL/0.9.8g mod_wsgi/2.3 Python/2.5.2\', \'last-modified\': \'Wed, 06 May 2009 05:41:27 GMT\', \'etag\': \'"14b82a0-e8b4-46937d8b98fc0"\', \'date\': \'Wed, 06 May 2009 14:12:00 GMT\', \'content-type\': \'text/html\'}'
p17
sVhttp://docs.python.org/tutorial/appetite.html
p18
S'{\'content-length\': \'10120\', \'accept-ranges\': \'bytes\', \'server\': \'Apache/2.2.9 (Debian) DAV/2 SVN/1.5.1 mod_ssl/2.2.9 OpenSSL/0.9.8g mod_wsgi/2.3 Python/2.5.2\', \'last-modified\': \'Wed, 06 May 2009 05:41:26 GMT\', \'etag\': \'"14b8293-2788-46937d8aa4d80"\', \'date\': \'Wed, 06 May 2009 14:11:58 GMT\', \'content-type\': \'text/html\'}'
p19
sVhttp://docs.python.org/_static/pygments.css
p20
S'{\'content-length\': \'3224\', \'accept-ranges\': \'bytes\', \'server\': \'Apache/2.2.9 (Debian) DAV/2 SVN/1.5.1 mod_ssl/2.2.9 OpenSSL/0.9.8g mod_wsgi/2.3 Python/2.5.2\', \'last-modified\': \'Wed, 06 May 2009 05:41:22 GMT\', \'etag\': \'"14b821e-c98-46937d86d4480"\', \'date\': \'Wed, 06 May 2009 14:11:58 GMT\', \'content-type\': \'text/css\'}'
p21
sVhttp://docs.python.org/tutorial/interactive.html
p22
S'{\'content-length\': \'17205\', \'accept-ranges\': \'bytes\', \'server\': \'Apache/2.2.9 (Debian) DAV/2 SVN/1.5.1 mod_ssl/2.2.9 OpenSSL/0.9.8g mod_wsgi/2.3 Python/2.5.2\', \'last-modified\': \'Wed, 06 May 2009 05:41:27 GMT\', \'etag\': \'"14b841e-4335-46937d8b98fc0"\', \'date\': \'Wed, 06 May 2009 14:12:03 GMT\', \'content-type\': \'text/html\'}'
p23
sVhttp://docs.python.org/tutorial/floatingpoint.html
p24
S'{\'content-length\': \'19954\', \'accept-ranges\': \'bytes\', \'server\': \'Apache/2.2.9 (Debian) DAV/2 SVN/1.5.1 mod_ssl/2.2.9 OpenSSL/0.9.8g mod_wsgi/2.3 Python/2.5.2\', \'last-modified\': \'Wed, 06 May 2009 05:41:27 GMT\', \'etag\': \'"14b841d-4df2-46937d8b98fc0"\', \'date\': \'Wed, 06 May 2009 14:11:58 GMT\', \'content-type\': \'text/html\'}'
p25
sVhttp://docs.python.org/tutorial/classes.html
p26
S'{\'content-length\': \'70898\', \'accept-ranges\': \'bytes\', \'server\': \'Apache/2.2.9 (Debian) DAV/2 SVN/1.5.1 mod_ssl/2.2.9 OpenSSL/0.9.8g mod_wsgi/2.3 Python/2.5.2\', \'last-modified\': \'Wed, 06 May 2009 05:41:27 GMT\', \'etag\': \'"14b82ab-114f2-46937d8b98fc0"\', \'date\': \'Wed, 06 May 2009 14:12:02 GMT\', \'content-type\': \'text/html\'}'
p27
sVhttp://docs.python.org/tutorial/whatnow.html
p28
S'{\'content-length\': \'9622\', \'accept-ranges\': \'bytes\', \'server\': \'Apache/2.2.9 (Debian) DAV/2 SVN/1.5.1 mod_ssl/2.2.9 OpenSSL/0.9.8g mod_wsgi/2.3 Python/2.5.2\', \'last-modified\': \'Wed, 06 May 2009 05:41:27 GMT\', \'etag\': \'"14b839f-2596-46937d8b98fc0"\', \'date\': \'Wed, 06 May 2009 14:11:59 GMT\', \'content-type\': \'text/html\'}'
p29
sVhttp://docs.python.org/tutorial/datastructures.html
p30
S'{\'content-length\': \'73015\', \'accept-ranges\': \'bytes\', \'server\': \'Apache/2.2.9 (Debian) DAV/2 SVN/1.5.1 mod_ssl/2.2.9 OpenSSL/0.9.8g mod_wsgi/2.3 Python/2.5.2\', \'last-modified\': \'Wed, 06 May 2009 05:41:27 GMT\', \'etag\': \'"14b8362-11d37-46937d8b98fc0"\', \'date\': \'Wed, 06 May 2009 14:12:01 GMT\', \'content-type\': \'text/html\'}'
p31
sVhttp://docs.python.org/tutorial/controlflow.html
p32
S'{\'content-length\': \'64699\', \'accept-ranges\': \'bytes\', \'server\': \'Apache/2.2.9 (Debian) DAV/2 SVN/1.5.1 mod_ssl/2.2.9 OpenSSL/0.9.8g mod_wsgi/2.3 Python/2.5.2\', \'last-modified\': \'Wed, 06 May 2009 05:41:27 GMT\', \'etag\': \'"14b833d-fcbb-46937d8b98fc0"\', \'date\': \'Wed, 06 May 2009 14:12:00 GMT\', \'content-type\': \'text/html\'}'
p33
s.